ARM GAS  C:\Users\Chris\AppData\Local\Temp\cctWpA4U.s 			page 1


   1              		.cpu cortex-m0
   2              		.fpu softvfp
   3              		.eabi_attribute 20, 1
   4              		.eabi_attribute 21, 1
   5              		.eabi_attribute 23, 3
   6              		.eabi_attribute 24, 1
   7              		.eabi_attribute 25, 1
   8              		.eabi_attribute 26, 1
   9              		.eabi_attribute 30, 6
  10              		.eabi_attribute 34, 0
  11              		.eabi_attribute 18, 4
  12              		.code	16
  13              		.file	"main.c"
  14              		.text
  15              	.Ltext0:
  16              		.cfi_sections	.debug_frame
  17              		.global	shut_down_led
  18              		.data
  19              		.type	shut_down_led, %object
  20              		.size	shut_down_led, 1
  21              	shut_down_led:
  22 0000 01       		.byte	1
  23              		.section	.text.main,"ax",%progbits
  24              		.align	2
  25              		.global	main
  26              		.code	16
  27              		.thumb_func
  28              		.type	main, %function
  29              	main:
  30              	.LFB35:
  31              		.file 1 ".\\main.c"
   1:.\main.c      **** /*****************************************************************************
   2:.\main.c      **** * File Name: main.c
   3:.\main.c      **** *
   4:.\main.c      **** * Version: 1.0
   5:.\main.c      **** *
   6:.\main.c      **** * Description:
   7:.\main.c      **** * This is the top level application for the PSoC 4 BLE Lab 4.
   8:.\main.c      **** *
   9:.\main.c      **** * Hardware Dependency:
  10:.\main.c      **** * CY8CKIT-042 BLE Pioneer Kit
  11:.\main.c      **** *
  12:.\main.c      **** ******************************************************************************
  13:.\main.c      **** * Copyright (2014), Cypress Semiconductor Corporation.
  14:.\main.c      **** ******************************************************************************
  15:.\main.c      **** * This software is owned by Cypress Semiconductor Corporation (Cypress) and is
  16:.\main.c      **** * protected by and subject to worldwide patent protection (United States and
  17:.\main.c      **** * foreign), United States copyright laws and international treaty provisions.
  18:.\main.c      **** * Cypress hereby grants to licensee a personal, non-exclusive, non-transferable
  19:.\main.c      **** * license to copy, use, modify, create derivative works of, and compile the
  20:.\main.c      **** * Cypress Source Code and derivative works for the sole purpose of creating
  21:.\main.c      **** * custom software in support of licensee product to be used only in conjunction
  22:.\main.c      **** * with a Cypress integrated circuit as specified in the applicable agreement.
  23:.\main.c      **** * Any reproduction, modification, translation, compilation, or representation of
  24:.\main.c      **** * this software except as specified above is prohibited without the express
  25:.\main.c      **** * written permission of Cypress.
  26:.\main.c      **** *
ARM GAS  C:\Users\Chris\AppData\Local\Temp\cctWpA4U.s 			page 2


  27:.\main.c      **** * Disclaimer: CYPRESS MAKES NO WARRANTY OF ANY KIND, EXPRESS OR IMPLIED, WITH
  28:.\main.c      **** * REGARD TO THIS MATERIAL, INCLUDING, BUT NOT LIMITED TO, THE IMPLIED
  29:.\main.c      **** * WARRANTIES OF MERCHANTABILITY AND FITNESS FOR A PARTICULAR PURPOSE.
  30:.\main.c      **** * Cypress reserves the right to make changes without further notice to the
  31:.\main.c      **** * materials described herein. Cypress does not assume any liability arising out
  32:.\main.c      **** * of the application or use of any product or circuit described herein. Cypress
  33:.\main.c      **** * does not authorize its products for use as critical components in life-support
  34:.\main.c      **** * systems where a malfunction or failure may reasonably be expected to result in
  35:.\main.c      **** * significant injury to the user. The inclusion of Cypress' product in a life-
  36:.\main.c      **** * support systems application implies that the manufacturer assumes all risk of
  37:.\main.c      **** * such use and in doing so indemnifies Cypress against all charges. Use may be
  38:.\main.c      **** * limited by and subject to the applicable Cypress software license agreement.
  39:.\main.c      **** *****************************************************************************/
  40:.\main.c      **** 
  41:.\main.c      **** 
  42:.\main.c      **** /*****************************************************************************
  43:.\main.c      **** * Included headers
  44:.\main.c      **** *****************************************************************************/
  45:.\main.c      **** #include <main.h>
  46:.\main.c      **** #include <BLEApplications.h>
  47:.\main.c      **** 
  48:.\main.c      **** 
  49:.\main.c      **** uint8 shut_down_led = TRUE;
  50:.\main.c      **** 
  51:.\main.c      **** /*****************************************************************************
  52:.\main.c      **** * Function Prototypes
  53:.\main.c      **** *****************************************************************************/
  54:.\main.c      **** static void InitializeSystem(void);
  55:.\main.c      **** static void HandleCapSenseSlider(void);
  56:.\main.c      **** void HandleLowPowerMode(void);
  57:.\main.c      **** 
  58:.\main.c      **** 
  59:.\main.c      **** /*****************************************************************************
  60:.\main.c      **** * Public functions
  61:.\main.c      **** *****************************************************************************/
  62:.\main.c      **** 
  63:.\main.c      **** /*******************************************************************************
  64:.\main.c      **** * Function Name: main
  65:.\main.c      **** ********************************************************************************
  66:.\main.c      **** * Summary:
  67:.\main.c      **** * System entrance point. This calls the initializing function and continuously
  68:.\main.c      **** * process BLE and CapSense events.
  69:.\main.c      **** *
  70:.\main.c      **** * Parameters:
  71:.\main.c      **** *  void
  72:.\main.c      **** *
  73:.\main.c      **** * Return:
  74:.\main.c      **** *  int
  75:.\main.c      **** *
  76:.\main.c      **** *******************************************************************************/
  77:.\main.c      **** int main()
  78:.\main.c      **** {
  32              		.loc 1 78 0
  33              		.cfi_startproc
  34 0000 80B5     		push	{r7, lr}
  35              		.cfi_def_cfa_offset 8
  36              		.cfi_offset 7, -8
ARM GAS  C:\Users\Chris\AppData\Local\Temp\cctWpA4U.s 			page 3


  37              		.cfi_offset 14, -4
  38 0002 00AF     		add	r7, sp, #0
  39              		.cfi_def_cfa_register 7
  79:.\main.c      **** 	/* This function will initialize the system resources such as BLE and CapSense */
  80:.\main.c      ****     InitializeSystem();
  40              		.loc 1 80 0
  41 0004 FFF7FEFF 		bl	InitializeSystem
  42              	.L3:
  81:.\main.c      **** 	
  82:.\main.c      ****     for(;;)
  83:.\main.c      ****     {
  84:.\main.c      ****         /*Process event callback to handle BLE events. The events generated and 
  85:.\main.c      **** 		* used for this application are inside the 'CustomEventHandler' routine*/
  86:.\main.c      ****         CyBle_ProcessEvents();
  43              		.loc 1 86 0
  44 0008 FFF7FEFF 		bl	CyBle_ProcessEvents
  87:.\main.c      **** 		
  88:.\main.c      **** 		if(TRUE == deviceConnected)
  45              		.loc 1 88 0
  46 000c 074B     		ldr	r3, .L4
  47 000e 1B78     		ldrb	r3, [r3]
  48 0010 012B     		cmp	r3, #1
  49 0012 07D1     		bne	.L2
  89:.\main.c      **** 		{
  90:.\main.c      ****             /* When the Client Characteristic Configuration descriptor (CCCD) is
  91:.\main.c      ****              * written by Central device for enabling/disabling notifications, 
  92:.\main.c      ****              * then the same descriptor value has to be explicitly updated in 
  93:.\main.c      ****              * application so that it reflects the correct value when the 
  94:.\main.c      ****              * descriptor is read */
  95:.\main.c      **** 			UpdateNotificationCCCD();
  50              		.loc 1 95 0
  51 0014 FFF7FEFF 		bl	UpdateNotificationCCCD
  96:.\main.c      **** 			
  97:.\main.c      **** 			/* Send CapSense Slider data when respective notification is enabled */
  98:.\main.c      **** 			if(TRUE == sendCapSenseSliderNotifications)
  52              		.loc 1 98 0
  53 0018 054B     		ldr	r3, .L4+4
  54 001a 1B78     		ldrb	r3, [r3]
  55 001c 012B     		cmp	r3, #1
  56 001e 01D1     		bne	.L2
  99:.\main.c      **** 			{
 100:.\main.c      **** 				/* Check for CapSense slider swipe and send data accordingly */
 101:.\main.c      **** 				HandleCapSenseSlider();
  57              		.loc 1 101 0
  58 0020 FFF7FEFF 		bl	HandleCapSenseSlider
  59              	.L2:
 102:.\main.c      **** 			}
 103:.\main.c      **** 		}
 104:.\main.c      ****         
 105:.\main.c      ****         HandleLowPowerMode();
  60              		.loc 1 105 0
  61 0024 FFF7FEFF 		bl	HandleLowPowerMode
 106:.\main.c      ****     }	
  62              		.loc 1 106 0
  63 0028 EEE7     		b	.L3
  64              	.L5:
  65 002a C046     		.align	2
ARM GAS  C:\Users\Chris\AppData\Local\Temp\cctWpA4U.s 			page 4


  66              	.L4:
  67 002c 00000000 		.word	deviceConnected
  68 0030 00000000 		.word	sendCapSenseSliderNotifications
  69              		.cfi_endproc
  70              	.LFE35:
  71              		.size	main, .-main
  72              		.section	.text.InitializeSystem,"ax",%progbits
  73              		.align	2
  74              		.code	16
  75              		.thumb_func
  76              		.type	InitializeSystem, %function
  77              	InitializeSystem:
  78              	.LFB36:
 107:.\main.c      **** }
 108:.\main.c      **** 
 109:.\main.c      **** 
 110:.\main.c      **** /*******************************************************************************
 111:.\main.c      **** * Function Name: InitializeSystem
 112:.\main.c      **** ********************************************************************************
 113:.\main.c      **** * Summary:
 114:.\main.c      **** * Start the components and initialize system.
 115:.\main.c      **** *
 116:.\main.c      **** * Parameters:
 117:.\main.c      **** *  void
 118:.\main.c      **** *
 119:.\main.c      **** * Return:
 120:.\main.c      **** *  void
 121:.\main.c      **** *
 122:.\main.c      **** *******************************************************************************/
 123:.\main.c      **** void InitializeSystem(void)
 124:.\main.c      **** {
  79              		.loc 1 124 0
  80              		.cfi_startproc
  81 0000 80B5     		push	{r7, lr}
  82              		.cfi_def_cfa_offset 8
  83              		.cfi_offset 7, -8
  84              		.cfi_offset 14, -4
  85 0002 00AF     		add	r7, sp, #0
  86              		.cfi_def_cfa_register 7
 125:.\main.c      **** 	/* Enable global interrupt mask */
 126:.\main.c      **** 	CyGlobalIntEnable; 
  87              		.loc 1 126 0
  88              	@ 126 ".\main.c" 1
  89 0004 62B6     		CPSIE   i
  90              	@ 0 "" 2
 127:.\main.c      **** 		
 128:.\main.c      **** 	/* Start BLE component and register the CustomEventHandler function. This 
 129:.\main.c      **** 	 * function exposes the events from BLE component for application use */
 130:.\main.c      ****     CyBle_Start(CustomEventHandler);	
  91              		.loc 1 130 0
  92              		.code	16
  93 0006 114B     		ldr	r3, .L7
  94 0008 181C     		mov	r0, r3
  95 000a FFF7FEFF 		bl	CyBle_Start
 131:.\main.c      ****     
 132:.\main.c      **** 	/* Start both the PrISM components for LED control*/
 133:.\main.c      ****     PRS_1_Start();
ARM GAS  C:\Users\Chris\AppData\Local\Temp\cctWpA4U.s 			page 5


  96              		.loc 1 133 0
  97 000e FFF7FEFF 		bl	PRS_1_Start
 134:.\main.c      ****     PRS_2_Start();
  98              		.loc 1 134 0
  99 0012 FFF7FEFF 		bl	PRS_2_Start
 135:.\main.c      **** 	
 136:.\main.c      **** 	/* The RGB LED on BLE Pioneer kit are active low. Drive HIGH on 
 137:.\main.c      **** 	 * pin for OFF and drive LOW on pin for ON*/
 138:.\main.c      **** 	PRS_1_WritePulse0(RGB_LED_OFF);
 100              		.loc 1 138 0
 101 0016 FF20     		mov	r0, #255
 102 0018 FFF7FEFF 		bl	PRS_1_WritePulse0
 139:.\main.c      **** 	PRS_1_WritePulse1(RGB_LED_OFF);
 103              		.loc 1 139 0
 104 001c FF20     		mov	r0, #255
 105 001e FFF7FEFF 		bl	PRS_1_WritePulse1
 140:.\main.c      **** 	PRS_2_WritePulse0(RGB_LED_OFF);
 106              		.loc 1 140 0
 107 0022 FF20     		mov	r0, #255
 108 0024 FFF7FEFF 		bl	PRS_2_WritePulse0
 141:.\main.c      **** 	
 142:.\main.c      **** 	/* Set Drive mode of output pins from HiZ to Strong */
 143:.\main.c      **** 	RED_SetDriveMode(RED_DM_STRONG);
 109              		.loc 1 143 0
 110 0028 0620     		mov	r0, #6
 111 002a FFF7FEFF 		bl	RED_SetDriveMode
 144:.\main.c      **** 	GREEN_SetDriveMode(GREEN_DM_STRONG);
 112              		.loc 1 144 0
 113 002e 0620     		mov	r0, #6
 114 0030 FFF7FEFF 		bl	GREEN_SetDriveMode
 145:.\main.c      **** 	BLUE_SetDriveMode(BLUE_DM_STRONG);
 115              		.loc 1 145 0
 116 0034 0620     		mov	r0, #6
 117 0036 FFF7FEFF 		bl	BLUE_SetDriveMode
 146:.\main.c      **** 	
 147:.\main.c      **** 	/* Initialize CapSense component and initialize baselines*/
 148:.\main.c      **** 	CapSense_Start();
 118              		.loc 1 148 0
 119 003a FFF7FEFF 		bl	CapSense_Start
 149:.\main.c      **** 	CapSense_InitializeAllBaselines();
 120              		.loc 1 149 0
 121 003e FFF7FEFF 		bl	CapSense_InitializeAllBaselines
 150:.\main.c      ****     CapSense_EnableWidget(CapSense_PROXIMITYSENSOR0__PROX);
 122              		.loc 1 150 0
 123 0042 0020     		mov	r0, #0
 124 0044 FFF7FEFF 		bl	CapSense_EnableWidget
 151:.\main.c      **** }
 125              		.loc 1 151 0
 126 0048 BD46     		mov	sp, r7
 127              		@ sp needed
 128 004a 80BD     		pop	{r7, pc}
 129              	.L8:
 130              		.align	2
 131              	.L7:
 132 004c 00000000 		.word	CustomEventHandler
 133              		.cfi_endproc
 134              	.LFE36:
ARM GAS  C:\Users\Chris\AppData\Local\Temp\cctWpA4U.s 			page 6


 135              		.size	InitializeSystem, .-InitializeSystem
 136              		.section	.text.HandleCapSenseSlider,"ax",%progbits
 137              		.align	2
 138              		.code	16
 139              		.thumb_func
 140              		.type	HandleCapSenseSlider, %function
 141              	HandleCapSenseSlider:
 142              	.LFB37:
 152:.\main.c      **** 
 153:.\main.c      **** 
 154:.\main.c      **** /*******************************************************************************
 155:.\main.c      **** * Function Name: HandleCapSenseSlider
 156:.\main.c      **** ********************************************************************************
 157:.\main.c      **** * Summary:
 158:.\main.c      **** * This function scans for finger position on CapSense slider, and if the  
 159:.\main.c      **** * position is different, triggers separate routine for BLE notification.
 160:.\main.c      **** *
 161:.\main.c      **** * Parameters:
 162:.\main.c      **** *  void
 163:.\main.c      **** *
 164:.\main.c      **** * Return:
 165:.\main.c      **** *  void
 166:.\main.c      **** *
 167:.\main.c      **** *******************************************************************************/
 168:.\main.c      **** void HandleCapSenseSlider(void)
 169:.\main.c      **** {
 143              		.loc 1 169 0
 144              		.cfi_startproc
 145 0000 80B5     		push	{r7, lr}
 146              		.cfi_def_cfa_offset 8
 147              		.cfi_offset 7, -8
 148              		.cfi_offset 14, -4
 149 0002 82B0     		sub	sp, sp, #8
 150              		.cfi_def_cfa_offset 16
 151 0004 00AF     		add	r7, sp, #0
 152              		.cfi_def_cfa_register 7
 170:.\main.c      **** 	/* Last read CapSense slider position value */
 171:.\main.c      **** 	//static uint16 lastPosition;	
 172:.\main.c      **** 	
 173:.\main.c      **** 	/* Present slider position read by CapSense */
 174:.\main.c      **** 	uint16 sliderPosition;
 175:.\main.c      **** 		
 176:.\main.c      **** 	/* Update CapSense baseline for next reading*/
 177:.\main.c      **** 	CapSense_UpdateEnabledBaselines();	
 153              		.loc 1 177 0
 154 0006 FFF7FEFF 		bl	CapSense_UpdateEnabledBaselines
 178:.\main.c      **** 		
 179:.\main.c      **** 	/* Scan the slider widget */
 180:.\main.c      **** 	CapSense_ScanEnabledWidgets();			
 155              		.loc 1 180 0
 156 000a FFF7FEFF 		bl	CapSense_ScanEnabledWidgets
 181:.\main.c      **** 	
 182:.\main.c      **** 	/* Wait for CapSense scanning to be complete. This could take about 5 ms */
 183:.\main.c      **** 	while(CapSense_IsBusy());
 157              		.loc 1 183 0
 158 000e C046     		mov	r8, r8
 159              	.L10:
ARM GAS  C:\Users\Chris\AppData\Local\Temp\cctWpA4U.s 			page 7


 160              		.loc 1 183 0 is_stmt 0 discriminator 1
 161 0010 FFF7FEFF 		bl	CapSense_IsBusy
 162 0014 031C     		mov	r3, r0
 163 0016 002B     		cmp	r3, #0
 164 0018 FAD1     		bne	.L10
 184:.\main.c      **** 	
 185:.\main.c      **** 	/* Read the finger position on the slider */
 186:.\main.c      **** 	sliderPosition =  CapSense_GetDiffCountData(CapSense_PROXIMITYSENSOR0__PROX);
 165              		.loc 1 186 0 is_stmt 1
 166 001a 0020     		mov	r0, #0
 167 001c FFF7FEFF 		bl	CapSense_GetDiffCountData
 168 0020 031C     		mov	r3, r0
 169 0022 1A1C     		mov	r2, r3
 170 0024 BB1D     		add	r3, r7, #6
 171 0026 1A80     		strh	r2, [r3]
 187:.\main.c      **** 	SendCapSenseNotification((uint8)sliderPosition);
 172              		.loc 1 187 0
 173 0028 BB1D     		add	r3, r7, #6
 174 002a 1B88     		ldrh	r3, [r3]
 175 002c DBB2     		uxtb	r3, r3
 176 002e 181C     		mov	r0, r3
 177 0030 FFF7FEFF 		bl	SendCapSenseNotification
 188:.\main.c      **** 
 189:.\main.c      **** 	/*If finger is detected on the slider*/
 190:.\main.c      **** 	//if((sliderPosition != NO_FINGER) && (sliderPosition <= SLIDER_MAX_VALUE))
 191:.\main.c      **** 	{
 192:.\main.c      ****         /* If finger position on the slider is changed then send data as BLE 
 193:.\main.c      ****          * notifications */
 194:.\main.c      ****        // if(sliderPosition != lastPosition)
 195:.\main.c      **** 		{
 196:.\main.c      **** 			/* Update global variable with present finger position on slider*/
 197:.\main.c      **** 			//lastPosition = sliderPosition;
 198:.\main.c      **** 
 199:.\main.c      **** 			
 200:.\main.c      **** 
 201:.\main.c      **** 		}	
 202:.\main.c      **** 	}	
 203:.\main.c      **** }
 178              		.loc 1 203 0
 179 0034 BD46     		mov	sp, r7
 180 0036 02B0     		add	sp, sp, #8
 181              		@ sp needed
 182 0038 80BD     		pop	{r7, pc}
 183              		.cfi_endproc
 184              	.LFE37:
 185              		.size	HandleCapSenseSlider, .-HandleCapSenseSlider
 186 003a C046     		.section	.text.HandleLowPowerMode,"ax",%progbits
 187              		.align	2
 188              		.global	HandleLowPowerMode
 189              		.code	16
 190              		.thumb_func
 191              		.type	HandleLowPowerMode, %function
 192              	HandleLowPowerMode:
 193              	.LFB38:
 204:.\main.c      **** 
 205:.\main.c      **** void HandleLowPowerMode(void)
 206:.\main.c      **** {
ARM GAS  C:\Users\Chris\AppData\Local\Temp\cctWpA4U.s 			page 8


 194              		.loc 1 206 0
 195              		.cfi_startproc
 196 0000 90B5     		push	{r4, r7, lr}
 197              		.cfi_def_cfa_offset 12
 198              		.cfi_offset 4, -12
 199              		.cfi_offset 7, -8
 200              		.cfi_offset 14, -4
 201 0002 83B0     		sub	sp, sp, #12
 202              		.cfi_def_cfa_offset 24
 203 0004 00AF     		add	r7, sp, #0
 204              		.cfi_def_cfa_register 7
 207:.\main.c      **** 	// Local variable to store the status of BLESS Hardware block
 208:.\main.c      **** 	CYBLE_LP_MODE_T sleepMode;
 209:.\main.c      **** 	CYBLE_BLESS_STATE_T blessState;
 210:.\main.c      **** 
 211:.\main.c      ****     /* Put CapSense to Sleep*/
 212:.\main.c      **** 	CapSense_Sleep();
 205              		.loc 1 212 0
 206 0006 FFF7FEFF 		bl	CapSense_Sleep
 213:.\main.c      **** 	
 214:.\main.c      **** 	/* Put BLESS into Deep Sleep and check the return status */
 215:.\main.c      **** 	sleepMode = CyBle_EnterLPM(CYBLE_BLESS_DEEPSLEEP);
 207              		.loc 1 215 0
 208 000a FC1D     		add	r4, r7, #7
 209 000c 0320     		mov	r0, #3
 210 000e FFF7FEFF 		bl	CyBle_EnterLPM
 211 0012 031C     		mov	r3, r0
 212 0014 2370     		strb	r3, [r4]
 216:.\main.c      **** 	
 217:.\main.c      **** 	/* Disable global interrupt to prevent changes from any other interrupt ISR */
 218:.\main.c      **** 	CyGlobalIntDisable;
 213              		.loc 1 218 0
 214              	@ 218 ".\main.c" 1
 215 0016 72B6     		CPSID   i
 216              	@ 0 "" 2
 219:.\main.c      **** 
 220:.\main.c      **** 	/* Check the Status of BLESS */
 221:.\main.c      **** 	blessState = CyBle_GetBleSsState();
 217              		.loc 1 221 0
 218              		.code	16
 219 0018 BC1D     		add	r4, r7, #6
 220 001a FFF7FEFF 		bl	CyBle_GetBleSsState
 221 001e 031C     		mov	r3, r0
 222 0020 2370     		strb	r3, [r4]
 222:.\main.c      **** 
 223:.\main.c      **** 	if(sleepMode == CYBLE_BLESS_DEEPSLEEP)
 223              		.loc 1 223 0
 224 0022 FB1D     		add	r3, r7, #7
 225 0024 1B78     		ldrb	r3, [r3]
 226 0026 032B     		cmp	r3, #3
 227 0028 06D1     		bne	.L12
 224:.\main.c      **** 	{
 225:.\main.c      **** 	    /* If the ECO has started or the BLESS can go to Deep Sleep, then place CPU 
 226:.\main.c      **** 		* to Deep Sleep */
 227:.\main.c      **** //		if(blessState == CYBLE_BLESS_STATE_ECO_ON || blessState == CYBLE_BLESS_STATE_DEEPSLEEP)
 228:.\main.c      **** //	    {
 229:.\main.c      **** //			if(shut_down_led)
ARM GAS  C:\Users\Chris\AppData\Local\Temp\cctWpA4U.s 			page 9


 230:.\main.c      **** //			{
 231:.\main.c      **** //				/* Place CPU to Deep sleep only when the RGB PrISM module is not 
 232:.\main.c      **** //				* active (indicated by flag 'shut_down_led'). 
 233:.\main.c      **** //				* If RGB PrISM is active, then the CPU should only be placed in 
 234:.\main.c      **** //				* Sleep to allow the SysTick to function and control the color 
 235:.\main.c      **** //				* and Intensity */
 236:.\main.c      **** //		        CySysPmDeepSleep();
 237:.\main.c      **** //			}
 238:.\main.c      **** //			else
 239:.\main.c      **** //			{
 240:.\main.c      **** //				/* If the system is controlling RGB LED, then PrISM needs to be running. 
 241:.\main.c      **** //				* Put CPU to sleep only */
 242:.\main.c      **** //				CySysPmSleep();
 243:.\main.c      **** //			}
 244:.\main.c      **** //	 	}
 245:.\main.c      ****         if(blessState == CYBLE_BLESS_STATE_ECO_ON)
 228              		.loc 1 245 0
 229 002a BB1D     		add	r3, r7, #6
 230 002c 1B78     		ldrb	r3, [r3]
 231 002e 042B     		cmp	r3, #4
 232 0030 08D1     		bne	.L14
 246:.\main.c      ****         {
 247:.\main.c      ****             CySysPmSleep();
 233              		.loc 1 247 0
 234 0032 FFF7FEFF 		bl	CySysPmSleep
 235 0036 05E0     		b	.L14
 236              	.L12:
 248:.\main.c      ****         }
 249:.\main.c      **** 	}
 250:.\main.c      **** 	else
 251:.\main.c      **** 	{
 252:.\main.c      **** 	    if(blessState != CYBLE_BLESS_STATE_EVENT_CLOSE)
 237              		.loc 1 252 0
 238 0038 BB1D     		add	r3, r7, #6
 239 003a 1B78     		ldrb	r3, [r3]
 240 003c 022B     		cmp	r3, #2
 241 003e 01D0     		beq	.L14
 253:.\main.c      **** 	    {
 254:.\main.c      **** 			/* If the BLESS hardware block cannot go to Deep Sleep and BLE Event has not 
 255:.\main.c      **** 			* closed yet, then place CPU to Sleep */
 256:.\main.c      **** 	        CySysPmSleep();
 242              		.loc 1 256 0
 243 0040 FFF7FEFF 		bl	CySysPmSleep
 244              	.L14:
 257:.\main.c      **** 	    }
 258:.\main.c      **** 	}
 259:.\main.c      **** 	
 260:.\main.c      **** 	/* Re-enable global interrupt mask after wakeup */
 261:.\main.c      **** 	CyGlobalIntEnable;
 245              		.loc 1 261 0
 246              	@ 261 ".\main.c" 1
 247 0044 62B6     		CPSIE   i
 248              	@ 0 "" 2
 262:.\main.c      **** 	
 263:.\main.c      **** 	/* Wakeup CapSense Block */
 264:.\main.c      **** 	CapSense_Wakeup();
 249              		.loc 1 264 0
ARM GAS  C:\Users\Chris\AppData\Local\Temp\cctWpA4U.s 			page 10


 250              		.code	16
 251 0046 FFF7FEFF 		bl	CapSense_Wakeup
 265:.\main.c      **** }
 252              		.loc 1 265 0
 253 004a BD46     		mov	sp, r7
 254 004c 03B0     		add	sp, sp, #12
 255              		@ sp needed
 256 004e 90BD     		pop	{r4, r7, pc}
 257              		.cfi_endproc
 258              	.LFE38:
 259              		.size	HandleLowPowerMode, .-HandleLowPowerMode
 260              		.text
 261              	.Letext0:
 262              		.file 2 ".\\Generated_Source\\PSoC4/cytypes.h"
 263              		.file 3 ".\\Generated_Source\\PSoC4/BLE_1_Stack.h"
 264              		.file 4 "./BLEApplications.h"